target datalayout = "e-m:e-p270:32:32-p271:32:32-p272:64:64-i64:64-i128:128-f80:128-n8:16:32:64-S128"
target triple = "x86_64-pc-linux-gnu"

%"class.cv::UMat" = type { i32, i32, i32, i32, ptr, i32, ptr, i64, %"struct.cv::MatSize", %"struct.cv::MatStep" }
%"struct.cv::MatSize" = type { ptr }
%"struct.cv::MatStep" = type { ptr, [2 x i64] }

; Function Attrs: inlinehint mustprogress nounwind uwtable
define linkonce_odr hidden void @_ZN2cv7MatStepC2Ev(ptr noundef nonnull align 8 dereferenceable(24) %0) unnamed_addr #5 comdat align 2 {
  %2 = alloca ptr, align 8
  store ptr %0, ptr %2, align 8, !tbaa !86
  %3 = load ptr, ptr %2, align 8
  %4 = getelementptr inbounds nuw %"struct.cv::MatStep", ptr %3, i32 0, i32 1
  %5 = getelementptr inbounds [2 x i64], ptr %4, i64 0, i64 0
  %6 = getelementptr inbounds nuw %"struct.cv::MatStep", ptr %3, i32 0, i32 0
  store ptr %5, ptr %6, align 8, !tbaa !88
  %7 = getelementptr inbounds nuw %"struct.cv::MatStep", ptr %3, i32 0, i32 0
  %8 = load ptr, ptr %7, align 8, !tbaa !88
  %9 = getelementptr inbounds i64, ptr %8, i64 1
  store i64 0, ptr %9, align 8, !tbaa !50
  %10 = getelementptr inbounds nuw %"struct.cv::MatStep", ptr %3, i32 0, i32 0
  %11 = load ptr, ptr %10, align 8, !tbaa !88
  %12 = getelementptr inbounds i64, ptr %11, i64 0
  store i64 0, ptr %12, align 8, !tbaa !50
  ret void
}

; Function Attrs: inlinehint mustprogress nounwind uwtable
define linkonce_odr hidden void @_ZN2cv7MatSizeC2EPi(ptr noundef nonnull align 8 dereferenceable(8) %0, ptr noundef %1) unnamed_addr #5 comdat align 2 {
  %3 = alloca ptr, align 8
  %4 = alloca ptr, align 8
  store ptr %0, ptr %3, align 8, !tbaa !82
  store ptr %1, ptr %4, align 8, !tbaa !84
  %5 = load ptr, ptr %3, align 8
  %6 = getelementptr inbounds nuw %"struct.cv::MatSize", ptr %5, i32 0, i32 0
  %7 = load ptr, ptr %4, align 8, !tbaa !84
  store ptr %7, ptr %6, align 8, !tbaa !85
  ret void
}

; Function Attrs: mustprogress uwtable
define void @_ZN2cv4UMatC2EiPKiiNS_14UMatUsageFlagsE(ptr noundef nonnull align 8 dereferenceable(80) %0, i32 noundef %1, ptr noundef %2, i32 noundef %3, i32 noundef %4) unnamed_addr #3 align 2 {
  %6 = alloca ptr, align 8
  %7 = alloca i32, align 4
  %8 = alloca ptr, align 8
  %9 = alloca i32, align 4
  %10 = alloca i32, align 4
  store ptr %0, ptr %6, align 8, !tbaa !65
  store i32 %1, ptr %7, align 4, !tbaa !37
  store ptr %2, ptr %8, align 8, !tbaa !84
  store i32 %3, ptr %9, align 4, !tbaa !37
  store i32 %4, ptr %10, align 4, !tbaa !67
  %11 = load ptr, ptr %6, align 8
  %12 = getelementptr inbounds nuw %"class.cv::UMat", ptr %11, i32 0, i32 0
  store i32 1124007936, ptr %12, align 8, !tbaa !69
  %13 = getelementptr inbounds nuw %"class.cv::UMat", ptr %11, i32 0, i32 1
  store i32 0, ptr %13, align 4, !tbaa !75
  %14 = getelementptr inbounds nuw %"class.cv::UMat", ptr %11, i32 0, i32 2
  store i32 0, ptr %14, align 8, !tbaa !76
  %15 = getelementptr inbounds nuw %"class.cv::UMat", ptr %11, i32 0, i32 3
  store i32 0, ptr %15, align 4, !tbaa !77
  %16 = getelementptr inbounds nuw %"class.cv::UMat", ptr %11, i32 0, i32 4
  store ptr null, ptr %16, align 8, !tbaa !78
  %17 = getelementptr inbounds nuw %"class.cv::UMat", ptr %11, i32 0, i32 5
  %18 = load i32, ptr %10, align 4, !tbaa !67
  store i32 %18, ptr %17, align 8, !tbaa !79
  %19 = getelementptr inbounds nuw %"class.cv::UMat", ptr %11, i32 0, i32 6
  store ptr null, ptr %19, align 8, !tbaa !80
  %20 = getelementptr inbounds nuw %"class.cv::UMat", ptr %11, i32 0, i32 7
  store i64 0, ptr %20, align 8, !tbaa !81
  %21 = getelementptr inbounds nuw %"class.cv::UMat", ptr %11, i32 0, i32 8
  %22 = getelementptr inbounds nuw %"class.cv::UMat", ptr %11, i32 0, i32 2
  call void @_ZN2cv7MatSizeC2EPi(ptr noundef nonnull align 8 dereferenceable(8) %21, ptr noundef %22) #16
  %23 = getelementptr inbounds nuw %"class.cv::UMat", ptr %11, i32 0, i32 9
  call void @_ZN2cv7MatStepC2Ev(ptr noundef nonnull align 8 dereferenceable(24) %23) #16
  %24 = load i32, ptr %7, align 4, !tbaa !37
  %25 = load ptr, ptr %8, align 8, !tbaa !84
  %26 = load i32, ptr %9, align 4, !tbaa !37
  call void @_ZN2cv4UMat6createEiPKiiNS_14UMatUsageFlagsE(ptr noundef nonnull align 8 dereferenceable(80) %11, i32 noundef %24, ptr noundef %25, i32 noundef %26, i32 noundef 0)
  ret void
}