; Function Attrs: mustprogress uwtable
define void @_ZN2cv4UMatC2EiPKiiNS_14UMatUsageFlagsE(ptr noundef nonnull align 8 dereferenceable(80) initializes((0, 28), (32, 48)) %0, i32 noundef %1, ptr noundef %2, i32 noundef %3, i32 noundef %4) unnamed_addr #4 align 2 {
  store i32 1124007936, ptr %0, align 8, !tbaa !43
  %6 = getelementptr inbounds nuw i8, ptr %0, i64 4
  %7 = getelementptr inbounds nuw i8, ptr %0, i64 8
  %8 = getelementptr inbounds nuw i8, ptr %0, i64 24
  tail call void @llvm.memset.p0.i64(ptr noundef nonnull align 4 dereferenceable(20) %6, i8 0, i64 20, i1 false)
  store i32 %4, ptr %8, align 8, !tbaa !50
  %9 = getelementptr inbounds nuw i8, ptr %0, i64 32
  %10 = getelementptr inbounds nuw i8, ptr %0, i64 48
  tail call void @llvm.memset.p0.i64(ptr noundef nonnull align 8 dereferenceable(16) %9, i8 0, i64 16, i1 false)
  store ptr %7, ptr %10, align 8, !tbaa !51
  %11 = getelementptr inbounds nuw i8, ptr %0, i64 56
  %12 = getelementptr inbounds nuw i8, ptr %0, i64 64
  store ptr %12, ptr %11, align 8, !tbaa !52
  tail call void @llvm.memset.p0.i64(ptr noundef nonnull align 8 dereferenceable(16) %12, i8 0, i64 16, i1 false)
  tail call void @_ZN2cv4UMat6createEiPKiiNS_14UMatUsageFlagsE(ptr noundef nonnull align 8 dereferenceable(80) %0, i32 noundef %1, ptr noundef %2, i32 noundef %3, i32 noundef 0)
  ret void
}